target datalayout = "e-m:e-p270:32:32-p271:32:32-p272:64:64-i64:64-i128:128-f80:128-n8:16:32:64-S128"
target triple = "x86_64-pc-linux-gnu"

%struct.UTrie2 = type { ptr, ptr, ptr, i32, i32, i16, i16, i32, i32, i32, i32, ptr, i32, i8, i8, i16, ptr }

@_ZL9propsTrie = internal constant %struct.UTrie2 { ptr @_ZL15propsTrie_index, ptr getelementptr (i8, ptr @_ZL15propsTrie_index, i64 9496), ptr null, i32 4748, i32 19048, i16 2624, i16 4876, i32 0, i32 0, i32 1114112, i32 23792, ptr null, i32 0, i8 0, i8 0, i16 0, ptr null }, align 8

; Function Attrs: mustprogress nounwind uwtable
define signext i8 @u_isISOControl_77(i32 noundef %0) #0 {
  %2 = alloca i32, align 4
  store i32 %0, ptr %2, align 4, !tbaa !3
  %3 = load i32, ptr %2, align 4, !tbaa !3
  %4 = icmp ule i32 %3, 159
  br i1 %4, label %5, label %13

5:                                                ; preds = %1
  %6 = load i32, ptr %2, align 4, !tbaa !3
  %7 = icmp sle i32 %6, 31
  br i1 %7, label %11, label %8

8:                                                ; preds = %5
  %9 = load i32, ptr %2, align 4, !tbaa !3
  %10 = icmp sge i32 %9, 127
  br label %11

11:                                               ; preds = %8, %5
  %12 = phi i1 [ true, %5 ], [ %10, %8 ]
  br label %13

13:                                               ; preds = %11, %1
  %14 = phi i1 [ false, %1 ], [ %12, %11 ]
  %15 = zext i1 %14 to i8
  ret i8 %15
}

; Function Attrs: mustprogress nounwind uwtable
define signext i8 @u_isIDIgnorable_77(i32 noundef %0) #0 {
  %2 = alloca i8, align 1
  %3 = alloca i32, align 4
  %4 = alloca i32, align 4
  store i32 %0, ptr %3, align 4, !tbaa !3
  %5 = load i32, ptr %3, align 4, !tbaa !3
  %6 = icmp sle i32 %5, 159
  br i1 %6, label %7, label %31

7:                                                ; preds = %1
  %8 = load i32, ptr %3, align 4, !tbaa !3
  %9 = call signext i8 @u_isISOControl_77(i32 noundef %8)
  %10 = icmp ne i8 %9, 0
  br i1 %10, label %11, label %28

11:                                               ; preds = %7
  %12 = load i32, ptr %3, align 4, !tbaa !3
  %13 = icmp sle i32 %12, 31
  br i1 %13, label %14, label %25

14:                                               ; preds = %11
  %15 = load i32, ptr %3, align 4, !tbaa !3
  %16 = icmp sge i32 %15, 9
  br i1 %16, label %17, label %25

17:                                               ; preds = %14
  %18 = load i32, ptr %3, align 4, !tbaa !3
  %19 = icmp sle i32 %18, 13
  br i1 %19, label %23, label %20

20:                                               ; preds = %17
  %21 = load i32, ptr %3, align 4, !tbaa !3
  %22 = icmp sge i32 %21, 28
  br label %23

23:                                               ; preds = %20, %17
  %24 = phi i1 [ true, %17 ], [ %22, %20 ]
  br label %25

25:                                               ; preds = %23, %14, %11
  %26 = phi i1 [ false, %14 ], [ false, %11 ], [ %24, %23 ]
  %27 = xor i1 %26, true
  br label %28

28:                                               ; preds = %25, %7
  %29 = phi i1 [ false, %7 ], [ %27, %25 ]
  %30 = zext i1 %29 to i8
  store i8 %30, ptr %2, align 1
  br label %113

31:                                               ; preds = %1
  call void @llvm.lifetime.start.p0(i64 4, ptr %4) #6
  %32 = load ptr, ptr @_ZL9propsTrie, align 8, !tbaa !7
  %33 = load i32, ptr %3, align 4, !tbaa !3
  %34 = icmp ult i32 %33, 55296
  br i1 %34, label %35, label %48

35:                                               ; preds = %31
  %36 = load ptr, ptr @_ZL9propsTrie, align 8, !tbaa !7
  %37 = load i32, ptr %3, align 4, !tbaa !3
  %38 = ashr i32 %37, 5
  %39 = add nsw i32 0, %38
  %40 = sext i32 %39 to i64
  %41 = getelementptr inbounds i16, ptr %36, i64 %40
  %42 = load i16, ptr %41, align 2, !tbaa !14
  %43 = zext i16 %42 to i32
  %44 = shl i32 %43, 2
  %45 = load i32, ptr %3, align 4, !tbaa !3
  %46 = and i32 %45, 31
  %47 = add nsw i32 %44, %46
  br label %103

48:                                               ; preds = %31
  %49 = load i32, ptr %3, align 4, !tbaa !3
  %50 = icmp ule i32 %49, 65535
  br i1 %50, label %51, label %67

51:                                               ; preds = %48
  %52 = load ptr, ptr @_ZL9propsTrie, align 8, !tbaa !7
  %53 = load i32, ptr %3, align 4, !tbaa !3
  %54 = icmp sle i32 %53, 56319
  %55 = select i1 %54, i32 320, i32 0
  %56 = load i32, ptr %3, align 4, !tbaa !3
  %57 = ashr i32 %56, 5
  %58 = add nsw i32 %55, %57
  %59 = sext i32 %58 to i64
  %60 = getelementptr inbounds i16, ptr %52, i64 %59
  %61 = load i16, ptr %60, align 2, !tbaa !14
  %62 = zext i16 %61 to i32
  %63 = shl i32 %62, 2
  %64 = load i32, ptr %3, align 4, !tbaa !3
  %65 = and i32 %64, 31
  %66 = add nsw i32 %63, %65
  br label %101

67:                                               ; preds = %48
  %68 = load i32, ptr %3, align 4, !tbaa !3
  %69 = icmp ugt i32 %68, 1114111
  br i1 %69, label %70, label %71

70:                                               ; preds = %67
  br label %99

71:                                               ; preds = %67
  %72 = load i32, ptr %3, align 4, !tbaa !3
  %73 = icmp sge i32 %72, 1114112
  br i1 %73, label %74, label %75

74:                                               ; preds = %71
  br label %97

75:                                               ; preds = %71
  %76 = load ptr, ptr @_ZL9propsTrie, align 8, !tbaa !7
  %77 = load ptr, ptr @_ZL9propsTrie, align 8, !tbaa !7
  %78 = load i32, ptr %3, align 4, !tbaa !3
  %79 = ashr i32 %78, 11
  %80 = add nsw i32 2080, %79
  %81 = sext i32 %80 to i64
  %82 = getelementptr inbounds i16, ptr %77, i64 %81
  %83 = load i16, ptr %82, align 2, !tbaa !14
  %84 = zext i16 %83 to i32
  %85 = load i32, ptr %3, align 4, !tbaa !3
  %86 = ashr i32 %85, 5
  %87 = and i32 %86, 63
  %88 = add nsw i32 %84, %87
  %89 = sext i32 %88 to i64
  %90 = getelementptr inbounds i16, ptr %76, i64 %89
  %91 = load i16, ptr %90, align 2, !tbaa !14
  %92 = zext i16 %91 to i32
  %93 = shl i32 %92, 2
  %94 = load i32, ptr %3, align 4, !tbaa !3
  %95 = and i32 %94, 31
  %96 = add nsw i32 %93, %95
  br label %97

97:                                               ; preds = %75, %74
  %98 = phi i32 [ 23792, %74 ], [ %96, %75 ]
  br label %99

99:                                               ; preds = %97, %70
  %100 = phi i32 [ 4876, %70 ], [ %98, %97 ]
  br label %101

101:                                              ; preds = %99, %51
  %102 = phi i32 [ %66, %51 ], [ %100, %99 ]
  br label %103

103:                                              ; preds = %101, %35
  %104 = phi i32 [ %47, %35 ], [ %102, %101 ]
  %105 = sext i32 %104 to i64
  %106 = getelementptr inbounds i16, ptr %32, i64 %105
  %107 = load i16, ptr %106, align 2, !tbaa !14
  %108 = zext i16 %107 to i32
  store i32 %108, ptr %4, align 4, !tbaa !3
  %109 = load i32, ptr %4, align 4, !tbaa !3
  %110 = and i32 %109, 31
  %111 = icmp eq i32 %110, 16
  %112 = zext i1 %111 to i8
  store i8 %112, ptr %2, align 1
  call void @llvm.lifetime.end.p0(i64 4, ptr %4) #6
  br label %113

113:                                              ; preds = %103, %28
  %114 = load i8, ptr %2, align 1
  ret i8 %114
}