; Function Attrs: mustprogress nofree norecurse nosync nounwind willreturn memory(none) uwtable
define signext range(i8 0, 2) i8 @u_isIDIgnorable_77(i32 noundef %0) local_unnamed_addr #0 {
  %2 = icmp slt i32 %0, 160
  br i1 %2, label %3, label %10

3:                                                ; preds = %1
  %4 = icmp ugt i32 %0, 159
  %5 = add i32 %0, -32
  %6 = icmp ult i32 %5, 95
  %narrow.i.not = or i1 %4, %6
  br i1 %narrow.i.not, label %47, label %7

7:                                                ; preds = %3
  %or.cond = icmp ult i32 %5, -23
  %8 = add nsw i32 %0, -14
  %9 = icmp ult i32 %8, 14
  %narrow = select i1 %or.cond, i1 true, i1 %9
  br label %47

10:                                               ; preds = %1
  %11 = icmp samesign ult i32 %0, 55296
  br i1 %11, label %12, label %14

12:                                               ; preds = %10
  %13 = lshr i32 %0, 5
  br label %.sink.split

14:                                               ; preds = %10
  %15 = icmp samesign ult i32 %0, 65536
  br i1 %15, label %16, label %21

16:                                               ; preds = %14
  %17 = icmp samesign ult i32 %0, 56320
  %18 = select i1 %17, i32 320, i32 0
  %19 = lshr i32 %0, 5
  %20 = add nuw nsw i32 %18, %19
  br label %.sink.split

21:                                               ; preds = %14
  %22 = icmp samesign ugt i32 %0, 1114111
  br i1 %22, label %41, label %23

23:                                               ; preds = %21
  %24 = lshr i32 %0, 11
  %25 = zext nneg i32 %24 to i64
  %26 = getelementptr inbounds nuw i16, ptr @_ZL15propsTrie_index, i64 %25
  %27 = getelementptr inbounds nuw i8, ptr %26, i64 4160
  %28 = load i16, ptr %27, align 2, !tbaa !3
  %29 = zext i16 %28 to i32
  %30 = lshr i32 %0, 5
  %31 = and i32 %30, 63
  %32 = add nuw nsw i32 %31, %29
  br label %.sink.split

.sink.split:                                      ; preds = %12, %23, %16
  %.sink27 = phi i32 [ %20, %16 ], [ %32, %23 ], [ %13, %12 ]
  %33 = zext nneg i32 %.sink27 to i64
  %34 = getelementptr inbounds nuw i16, ptr @_ZL15propsTrie_index, i64 %33
  %35 = load i16, ptr %34, align 2, !tbaa !3
  %36 = zext i16 %35 to i32
  %37 = shl nuw nsw i32 %36, 2
  %38 = and i32 %0, 31
  %39 = add nuw nsw i32 %37, %38
  %40 = zext nneg i32 %39 to i64
  br label %41

41:                                               ; preds = %.sink.split, %21
  %42 = phi i64 [ 4876, %21 ], [ %40, %.sink.split ]
  %43 = getelementptr inbounds nuw i16, ptr @_ZL15propsTrie_index, i64 %42
  %44 = load i16, ptr %43, align 2, !tbaa !3
  %45 = and i16 %44, 31
  %46 = icmp eq i16 %45, 16
  br label %47

47:                                               ; preds = %3, %7, %41
  %.0.shrunk = phi i1 [ %46, %41 ], [ false, %3 ], [ %narrow, %7 ]
  %.0 = zext i1 %.0.shrunk to i8
  ret i8 %.0
}